ARM GAS  C:\Users\LINZHE~1\AppData\Local\Temp\ccbqWqTa.s 			page 1


   1              		.cpu cortex-m7
   2              		.arch armv7e-m
   3              		.fpu fpv5-d16
   4              		.eabi_attribute 28, 1
   5              		.eabi_attribute 20, 1
   6              		.eabi_attribute 21, 1
   7              		.eabi_attribute 23, 3
   8              		.eabi_attribute 24, 1
   9              		.eabi_attribute 25, 1
  10              		.eabi_attribute 26, 1
  11              		.eabi_attribute 30, 6
  12              		.eabi_attribute 34, 1
  13              		.eabi_attribute 18, 4
  14              		.file	"stm322f767zi_user.c"
  15              		.text
  16              	.Ltext0:
  17              		.cfi_sections	.debug_frame
  18              		.section	.text.led_init,"ax",%progbits
  19              		.align	1
  20              		.global	led_init
  21              		.syntax unified
  22              		.thumb
  23              		.thumb_func
  25              	led_init:
  26              	.LFB0:
  27              		.file 1 "./Src/stm322f767zi_user.c"
   1:./Src/stm322f767zi_user.c **** /**
   2:./Src/stm322f767zi_user.c ****  * @file stm322f767zi_user.c
   3:./Src/stm322f767zi_user.c ****  * @author zheyi613 (zheyi880613@gmail.com)
   4:./Src/stm322f767zi_user.c ****  * @brief led and button function
   5:./Src/stm322f767zi_user.c ****  * @date 2022-08-11
   6:./Src/stm322f767zi_user.c ****  */
   7:./Src/stm322f767zi_user.c **** 
   8:./Src/stm322f767zi_user.c **** #include "stm32f767zi_user.h"
   9:./Src/stm322f767zi_user.c **** 
  10:./Src/stm322f767zi_user.c **** void led_init(void)
  11:./Src/stm322f767zi_user.c **** {
  28              		.loc 1 11 1
  29              		.cfi_startproc
  30              		@ args = 0, pretend = 0, frame = 0
  31              		@ frame_needed = 1, uses_anonymous_args = 0
  32 0000 80B5     		push	{r7, lr}
  33              	.LCFI0:
  34              		.cfi_def_cfa_offset 8
  35              		.cfi_offset 7, -8
  36              		.cfi_offset 14, -4
  37 0002 00AF     		add	r7, sp, #0
  38              	.LCFI1:
  39              		.cfi_def_cfa_register 7
  12:./Src/stm322f767zi_user.c ****         RCC->AHB1ENR |= GPIOB_CLK_EN;
  40              		.loc 1 12 22
  41 0004 0B4B     		ldr	r3, .L2
  42 0006 1B6B     		ldr	r3, [r3, #48]
  43 0008 0A4A     		ldr	r2, .L2
  44 000a 43F00203 		orr	r3, r3, #2
  45 000e 1363     		str	r3, [r2, #48]
  13:./Src/stm322f767zi_user.c ****         gpio_set_mode(GPIOB, USER_LED1_POS, USER_LED_MODE);
ARM GAS  C:\Users\LINZHE~1\AppData\Local\Temp\ccbqWqTa.s 			page 2


  46              		.loc 1 13 9
  47 0010 0122     		movs	r2, #1
  48 0012 0021     		movs	r1, #0
  49 0014 0848     		ldr	r0, .L2+4
  50 0016 FFF7FEFF 		bl	gpio_set_mode
  14:./Src/stm322f767zi_user.c ****         gpio_set_mode(GPIOB, USER_LED2_POS, USER_LED_MODE);
  51              		.loc 1 14 9
  52 001a 0122     		movs	r2, #1
  53 001c 0721     		movs	r1, #7
  54 001e 0648     		ldr	r0, .L2+4
  55 0020 FFF7FEFF 		bl	gpio_set_mode
  15:./Src/stm322f767zi_user.c ****         gpio_set_mode(GPIOB, USER_LED3_POS, USER_LED_MODE);
  56              		.loc 1 15 9
  57 0024 0122     		movs	r2, #1
  58 0026 0E21     		movs	r1, #14
  59 0028 0348     		ldr	r0, .L2+4
  60 002a FFF7FEFF 		bl	gpio_set_mode
  16:./Src/stm322f767zi_user.c **** }
  61              		.loc 1 16 1
  62 002e 00BF     		nop
  63 0030 80BD     		pop	{r7, pc}
  64              	.L3:
  65 0032 00BF     		.align	2
  66              	.L2:
  67 0034 00380240 		.word	1073887232
  68 0038 00040240 		.word	1073873920
  69              		.cfi_endproc
  70              	.LFE0:
  72              		.section	.text.button_init,"ax",%progbits
  73              		.align	1
  74              		.global	button_init
  75              		.syntax unified
  76              		.thumb
  77              		.thumb_func
  79              	button_init:
  80              	.LFB1:
  17:./Src/stm322f767zi_user.c **** 
  18:./Src/stm322f767zi_user.c **** void button_init(void)
  19:./Src/stm322f767zi_user.c **** {
  81              		.loc 1 19 1
  82              		.cfi_startproc
  83              		@ args = 0, pretend = 0, frame = 0
  84              		@ frame_needed = 1, uses_anonymous_args = 0
  85 0000 80B5     		push	{r7, lr}
  86              	.LCFI2:
  87              		.cfi_def_cfa_offset 8
  88              		.cfi_offset 7, -8
  89              		.cfi_offset 14, -4
  90 0002 00AF     		add	r7, sp, #0
  91              	.LCFI3:
  92              		.cfi_def_cfa_register 7
  20:./Src/stm322f767zi_user.c ****         RCC->AHB1ENR |= GPIOC_CLK_EN;
  93              		.loc 1 20 22
  94 0004 064B     		ldr	r3, .L5
  95 0006 1B6B     		ldr	r3, [r3, #48]
  96 0008 054A     		ldr	r2, .L5
  97 000a 43F00403 		orr	r3, r3, #4
ARM GAS  C:\Users\LINZHE~1\AppData\Local\Temp\ccbqWqTa.s 			page 3


  98 000e 1363     		str	r3, [r2, #48]
  21:./Src/stm322f767zi_user.c ****         gpio_set_mode(GPIOC, USER_BUTTON_POS, USER_BUTTON_MODE);
  99              		.loc 1 21 9
 100 0010 0022     		movs	r2, #0
 101 0012 0D21     		movs	r1, #13
 102 0014 0348     		ldr	r0, .L5+4
 103 0016 FFF7FEFF 		bl	gpio_set_mode
  22:./Src/stm322f767zi_user.c **** }
 104              		.loc 1 22 1
 105 001a 00BF     		nop
 106 001c 80BD     		pop	{r7, pc}
 107              	.L6:
 108 001e 00BF     		.align	2
 109              	.L5:
 110 0020 00380240 		.word	1073887232
 111 0024 00080240 		.word	1073874944
 112              		.cfi_endproc
 113              	.LFE1:
 115              		.section	.text.led_toggle,"ax",%progbits
 116              		.align	1
 117              		.global	led_toggle
 118              		.syntax unified
 119              		.thumb
 120              		.thumb_func
 122              	led_toggle:
 123              	.LFB2:
  23:./Src/stm322f767zi_user.c **** 
  24:./Src/stm322f767zi_user.c **** void led_toggle(led_t led)
  25:./Src/stm322f767zi_user.c **** {
 124              		.loc 1 25 1
 125              		.cfi_startproc
 126              		@ args = 0, pretend = 0, frame = 8
 127              		@ frame_needed = 1, uses_anonymous_args = 0
 128              		@ link register save eliminated.
 129 0000 80B4     		push	{r7}
 130              	.LCFI4:
 131              		.cfi_def_cfa_offset 4
 132              		.cfi_offset 7, -4
 133 0002 83B0     		sub	sp, sp, #12
 134              	.LCFI5:
 135              		.cfi_def_cfa_offset 16
 136 0004 00AF     		add	r7, sp, #0
 137              	.LCFI6:
 138              		.cfi_def_cfa_register 7
 139 0006 7860     		str	r0, [r7, #4]
  26:./Src/stm322f767zi_user.c ****         GPIOB->ODR ^= led;
 140              		.loc 1 26 20
 141 0008 054B     		ldr	r3, .L8
 142 000a 5A69     		ldr	r2, [r3, #20]
 143 000c 0449     		ldr	r1, .L8
 144 000e 7B68     		ldr	r3, [r7, #4]
 145 0010 5340     		eors	r3, r3, r2
 146 0012 4B61     		str	r3, [r1, #20]
  27:./Src/stm322f767zi_user.c **** }
 147              		.loc 1 27 1
 148 0014 00BF     		nop
 149 0016 0C37     		adds	r7, r7, #12
ARM GAS  C:\Users\LINZHE~1\AppData\Local\Temp\ccbqWqTa.s 			page 4


 150              	.LCFI7:
 151              		.cfi_def_cfa_offset 4
 152 0018 BD46     		mov	sp, r7
 153              	.LCFI8:
 154              		.cfi_def_cfa_register 13
 155              		@ sp needed
 156 001a 5DF8047B 		ldr	r7, [sp], #4
 157              	.LCFI9:
 158              		.cfi_restore 7
 159              		.cfi_def_cfa_offset 0
 160 001e 7047     		bx	lr
 161              	.L9:
 162              		.align	2
 163              	.L8:
 164 0020 00040240 		.word	1073873920
 165              		.cfi_endproc
 166              	.LFE2:
 168              		.section	.text.led_on,"ax",%progbits
 169              		.align	1
 170              		.global	led_on
 171              		.syntax unified
 172              		.thumb
 173              		.thumb_func
 175              	led_on:
 176              	.LFB3:
  28:./Src/stm322f767zi_user.c **** 
  29:./Src/stm322f767zi_user.c **** void led_on(led_t led)
  30:./Src/stm322f767zi_user.c **** {
 177              		.loc 1 30 1
 178              		.cfi_startproc
 179              		@ args = 0, pretend = 0, frame = 8
 180              		@ frame_needed = 1, uses_anonymous_args = 0
 181              		@ link register save eliminated.
 182 0000 80B4     		push	{r7}
 183              	.LCFI10:
 184              		.cfi_def_cfa_offset 4
 185              		.cfi_offset 7, -4
 186 0002 83B0     		sub	sp, sp, #12
 187              	.LCFI11:
 188              		.cfi_def_cfa_offset 16
 189 0004 00AF     		add	r7, sp, #0
 190              	.LCFI12:
 191              		.cfi_def_cfa_register 7
 192 0006 7860     		str	r0, [r7, #4]
  31:./Src/stm322f767zi_user.c ****         GPIOB->BSRR |= led;
 193              		.loc 1 31 21
 194 0008 054B     		ldr	r3, .L11
 195 000a 9A69     		ldr	r2, [r3, #24]
 196 000c 0449     		ldr	r1, .L11
 197 000e 7B68     		ldr	r3, [r7, #4]
 198 0010 1343     		orrs	r3, r3, r2
 199 0012 8B61     		str	r3, [r1, #24]
  32:./Src/stm322f767zi_user.c **** }
 200              		.loc 1 32 1
 201 0014 00BF     		nop
 202 0016 0C37     		adds	r7, r7, #12
 203              	.LCFI13:
ARM GAS  C:\Users\LINZHE~1\AppData\Local\Temp\ccbqWqTa.s 			page 5


 204              		.cfi_def_cfa_offset 4
 205 0018 BD46     		mov	sp, r7
 206              	.LCFI14:
 207              		.cfi_def_cfa_register 13
 208              		@ sp needed
 209 001a 5DF8047B 		ldr	r7, [sp], #4
 210              	.LCFI15:
 211              		.cfi_restore 7
 212              		.cfi_def_cfa_offset 0
 213 001e 7047     		bx	lr
 214              	.L12:
 215              		.align	2
 216              	.L11:
 217 0020 00040240 		.word	1073873920
 218              		.cfi_endproc
 219              	.LFE3:
 221              		.section	.text.led_off,"ax",%progbits
 222              		.align	1
 223              		.global	led_off
 224              		.syntax unified
 225              		.thumb
 226              		.thumb_func
 228              	led_off:
 229              	.LFB4:
  33:./Src/stm322f767zi_user.c **** 
  34:./Src/stm322f767zi_user.c **** void led_off(led_t led)
  35:./Src/stm322f767zi_user.c **** {
 230              		.loc 1 35 1
 231              		.cfi_startproc
 232              		@ args = 0, pretend = 0, frame = 8
 233              		@ frame_needed = 1, uses_anonymous_args = 0
 234              		@ link register save eliminated.
 235 0000 80B4     		push	{r7}
 236              	.LCFI16:
 237              		.cfi_def_cfa_offset 4
 238              		.cfi_offset 7, -4
 239 0002 83B0     		sub	sp, sp, #12
 240              	.LCFI17:
 241              		.cfi_def_cfa_offset 16
 242 0004 00AF     		add	r7, sp, #0
 243              	.LCFI18:
 244              		.cfi_def_cfa_register 7
 245 0006 7860     		str	r0, [r7, #4]
  36:./Src/stm322f767zi_user.c ****         GPIOB->BSRR |= led << 16;
 246              		.loc 1 36 21
 247 0008 064B     		ldr	r3, .L14
 248 000a 9A69     		ldr	r2, [r3, #24]
 249              		.loc 1 36 28
 250 000c 7B68     		ldr	r3, [r7, #4]
 251 000e 1B04     		lsls	r3, r3, #16
 252              		.loc 1 36 21
 253 0010 0449     		ldr	r1, .L14
 254 0012 1343     		orrs	r3, r3, r2
 255 0014 8B61     		str	r3, [r1, #24]
  37:./Src/stm322f767zi_user.c **** }...
 256              		.loc 1 37 1
 257 0016 00BF     		nop
ARM GAS  C:\Users\LINZHE~1\AppData\Local\Temp\ccbqWqTa.s 			page 6


 258 0018 0C37     		adds	r7, r7, #12
 259              	.LCFI19:
 260              		.cfi_def_cfa_offset 4
 261 001a BD46     		mov	sp, r7
 262              	.LCFI20:
 263              		.cfi_def_cfa_register 13
 264              		@ sp needed
 265 001c 5DF8047B 		ldr	r7, [sp], #4
 266              	.LCFI21:
 267              		.cfi_restore 7
 268              		.cfi_def_cfa_offset 0
 269 0020 7047     		bx	lr
 270              	.L15:
 271 0022 00BF     		.align	2
 272              	.L14:
 273 0024 00040240 		.word	1073873920
 274              		.cfi_endproc
 275              	.LFE4:
 277              		.text
 278              	.Letext0:
 279              		.file 2 "d:\\gcc-arm-none-eabi-10.3-2021.10\\arm-none-eabi\\include\\machine\\_default_types.h"
 280              		.file 3 "d:\\gcc-arm-none-eabi-10.3-2021.10\\arm-none-eabi\\include\\sys\\_stdint.h"
 281              		.file 4 "./Inc/stm32f767zi_hal.h"
 282              		.file 5 "./Inc/stm32f767zi_user.h"
ARM GAS  C:\Users\LINZHE~1\AppData\Local\Temp\ccbqWqTa.s 			page 7


DEFINED SYMBOLS
                            *ABS*:00000000 stm322f767zi_user.c
C:\Users\LINZHE~1\AppData\Local\Temp\ccbqWqTa.s:19     .text.led_init:00000000 $t
C:\Users\LINZHE~1\AppData\Local\Temp\ccbqWqTa.s:25     .text.led_init:00000000 led_init
C:\Users\LINZHE~1\AppData\Local\Temp\ccbqWqTa.s:67     .text.led_init:00000034 $d
C:\Users\LINZHE~1\AppData\Local\Temp\ccbqWqTa.s:73     .text.button_init:00000000 $t
C:\Users\LINZHE~1\AppData\Local\Temp\ccbqWqTa.s:79     .text.button_init:00000000 button_init
C:\Users\LINZHE~1\AppData\Local\Temp\ccbqWqTa.s:110    .text.button_init:00000020 $d
C:\Users\LINZHE~1\AppData\Local\Temp\ccbqWqTa.s:116    .text.led_toggle:00000000 $t
C:\Users\LINZHE~1\AppData\Local\Temp\ccbqWqTa.s:122    .text.led_toggle:00000000 led_toggle
C:\Users\LINZHE~1\AppData\Local\Temp\ccbqWqTa.s:164    .text.led_toggle:00000020 $d
C:\Users\LINZHE~1\AppData\Local\Temp\ccbqWqTa.s:169    .text.led_on:00000000 $t
C:\Users\LINZHE~1\AppData\Local\Temp\ccbqWqTa.s:175    .text.led_on:00000000 led_on
C:\Users\LINZHE~1\AppData\Local\Temp\ccbqWqTa.s:217    .text.led_on:00000020 $d
C:\Users\LINZHE~1\AppData\Local\Temp\ccbqWqTa.s:222    .text.led_off:00000000 $t
C:\Users\LINZHE~1\AppData\Local\Temp\ccbqWqTa.s:228    .text.led_off:00000000 led_off
C:\Users\LINZHE~1\AppData\Local\Temp\ccbqWqTa.s:273    .text.led_off:00000024 $d

UNDEFINED SYMBOLS
gpio_set_mode
