ARM GAS  C:\Users\DCS_LAB\AppData\Local\Temp\ccWgDId7.s 			page 1


   1              		.cpu cortex-m7
   2              		.arch armv7e-m
   3              		.fpu softvfp
   4              		.eabi_attribute 20, 1
   5              		.eabi_attribute 21, 1
   6              		.eabi_attribute 23, 3
   7              		.eabi_attribute 24, 1
   8              		.eabi_attribute 25, 1
   9              		.eabi_attribute 26, 1
  10              		.eabi_attribute 30, 6
  11              		.eabi_attribute 34, 1
  12              		.eabi_attribute 18, 4
  13              		.file	"stm322f767zi_user.c"
  14              		.text
  15              	.Ltext0:
  16              		.cfi_sections	.debug_frame
  17              		.section	.text.led_init,"ax",%progbits
  18              		.align	1
  19              		.global	led_init
  20              		.syntax unified
  21              		.thumb
  22              		.thumb_func
  24              	led_init:
  25              	.LFB0:
  26              		.file 1 "./Src/stm322f767zi_user.c"
   1:./Src/stm322f767zi_user.c **** /**
   2:./Src/stm322f767zi_user.c ****  * @file stm322f767zi_user.c
   3:./Src/stm322f767zi_user.c ****  * @author zheyi613 (zheyi880613@gmail.com)
   4:./Src/stm322f767zi_user.c ****  * @brief led and button function
   5:./Src/stm322f767zi_user.c ****  * @date 2022-08-11
   6:./Src/stm322f767zi_user.c ****  */
   7:./Src/stm322f767zi_user.c **** 
   8:./Src/stm322f767zi_user.c **** #include "stm32f767zi_user.h"
   9:./Src/stm322f767zi_user.c **** 
  10:./Src/stm322f767zi_user.c **** void led_init(void)
  11:./Src/stm322f767zi_user.c **** {
  27              		.loc 1 11 1
  28              		.cfi_startproc
  29              		@ args = 0, pretend = 0, frame = 0
  30              		@ frame_needed = 1, uses_anonymous_args = 0
  31 0000 80B5     		push	{r7, lr}
  32              	.LCFI0:
  33              		.cfi_def_cfa_offset 8
  34              		.cfi_offset 7, -8
  35              		.cfi_offset 14, -4
  36 0002 00AF     		add	r7, sp, #0
  37              	.LCFI1:
  38              		.cfi_def_cfa_register 7
  12:./Src/stm322f767zi_user.c ****         RCC->AHB1ENR |= GPIOB_CLK_EN;
  39              		.loc 1 12 22
  40 0004 0B4B     		ldr	r3, .L2
  41 0006 1B6B     		ldr	r3, [r3, #48]
  42 0008 0A4A     		ldr	r2, .L2
  43 000a 43F00203 		orr	r3, r3, #2
  44 000e 1363     		str	r3, [r2, #48]
  13:./Src/stm322f767zi_user.c ****         gpio_set_mode(GPIOB, USER_LED1_POS, USER_LED_MODE);
  45              		.loc 1 13 9
ARM GAS  C:\Users\DCS_LAB\AppData\Local\Temp\ccWgDId7.s 			page 2


  46 0010 0122     		movs	r2, #1
  47 0012 0021     		movs	r1, #0
  48 0014 0848     		ldr	r0, .L2+4
  49 0016 FFF7FEFF 		bl	gpio_set_mode
  14:./Src/stm322f767zi_user.c ****         gpio_set_mode(GPIOB, USER_LED2_POS, USER_LED_MODE);
  50              		.loc 1 14 9
  51 001a 0122     		movs	r2, #1
  52 001c 0721     		movs	r1, #7
  53 001e 0648     		ldr	r0, .L2+4
  54 0020 FFF7FEFF 		bl	gpio_set_mode
  15:./Src/stm322f767zi_user.c ****         gpio_set_mode(GPIOB, USER_LED3_POS, USER_LED_MODE);
  55              		.loc 1 15 9
  56 0024 0122     		movs	r2, #1
  57 0026 0E21     		movs	r1, #14
  58 0028 0348     		ldr	r0, .L2+4
  59 002a FFF7FEFF 		bl	gpio_set_mode
  16:./Src/stm322f767zi_user.c **** }
  60              		.loc 1 16 1
  61 002e 00BF     		nop
  62 0030 80BD     		pop	{r7, pc}
  63              	.L3:
  64 0032 00BF     		.align	2
  65              	.L2:
  66 0034 00380240 		.word	1073887232
  67 0038 00040240 		.word	1073873920
  68              		.cfi_endproc
  69              	.LFE0:
  71              		.section	.text.button_init,"ax",%progbits
  72              		.align	1
  73              		.global	button_init
  74              		.syntax unified
  75              		.thumb
  76              		.thumb_func
  78              	button_init:
  79              	.LFB1:
  17:./Src/stm322f767zi_user.c **** 
  18:./Src/stm322f767zi_user.c **** void button_init(void)
  19:./Src/stm322f767zi_user.c **** {
  80              		.loc 1 19 1
  81              		.cfi_startproc
  82              		@ args = 0, pretend = 0, frame = 0
  83              		@ frame_needed = 1, uses_anonymous_args = 0
  84 0000 80B5     		push	{r7, lr}
  85              	.LCFI2:
  86              		.cfi_def_cfa_offset 8
  87              		.cfi_offset 7, -8
  88              		.cfi_offset 14, -4
  89 0002 00AF     		add	r7, sp, #0
  90              	.LCFI3:
  91              		.cfi_def_cfa_register 7
  20:./Src/stm322f767zi_user.c ****         RCC->AHB1ENR |= GPIOC_CLK_EN;
  92              		.loc 1 20 22
  93 0004 064B     		ldr	r3, .L5
  94 0006 1B6B     		ldr	r3, [r3, #48]
  95 0008 054A     		ldr	r2, .L5
  96 000a 43F00403 		orr	r3, r3, #4
  97 000e 1363     		str	r3, [r2, #48]
ARM GAS  C:\Users\DCS_LAB\AppData\Local\Temp\ccWgDId7.s 			page 3


  21:./Src/stm322f767zi_user.c ****         gpio_set_mode(GPIOC, USER_BUTTON_POS, USER_BUTTON_MODE);
  98              		.loc 1 21 9
  99 0010 0022     		movs	r2, #0
 100 0012 0D21     		movs	r1, #13
 101 0014 0348     		ldr	r0, .L5+4
 102 0016 FFF7FEFF 		bl	gpio_set_mode
  22:./Src/stm322f767zi_user.c **** }
 103              		.loc 1 22 1
 104 001a 00BF     		nop
 105 001c 80BD     		pop	{r7, pc}
 106              	.L6:
 107 001e 00BF     		.align	2
 108              	.L5:
 109 0020 00380240 		.word	1073887232
 110 0024 00080240 		.word	1073874944
 111              		.cfi_endproc
 112              	.LFE1:
 114              		.section	.text.led_toggle,"ax",%progbits
 115              		.align	1
 116              		.global	led_toggle
 117              		.syntax unified
 118              		.thumb
 119              		.thumb_func
 121              	led_toggle:
 122              	.LFB2:
  23:./Src/stm322f767zi_user.c **** 
  24:./Src/stm322f767zi_user.c **** void led_toggle(led_t led)
  25:./Src/stm322f767zi_user.c **** {
 123              		.loc 1 25 1
 124              		.cfi_startproc
 125              		@ args = 0, pretend = 0, frame = 8
 126              		@ frame_needed = 1, uses_anonymous_args = 0
 127              		@ link register save eliminated.
 128 0000 80B4     		push	{r7}
 129              	.LCFI4:
 130              		.cfi_def_cfa_offset 4
 131              		.cfi_offset 7, -4
 132 0002 83B0     		sub	sp, sp, #12
 133              	.LCFI5:
 134              		.cfi_def_cfa_offset 16
 135 0004 00AF     		add	r7, sp, #0
 136              	.LCFI6:
 137              		.cfi_def_cfa_register 7
 138 0006 7860     		str	r0, [r7, #4]
  26:./Src/stm322f767zi_user.c ****         GPIOB->ODR ^= led;
 139              		.loc 1 26 20
 140 0008 054B     		ldr	r3, .L8
 141 000a 5A69     		ldr	r2, [r3, #20]
 142 000c 0449     		ldr	r1, .L8
 143 000e 7B68     		ldr	r3, [r7, #4]
 144 0010 5340     		eors	r3, r3, r2
 145 0012 4B61     		str	r3, [r1, #20]
  27:./Src/stm322f767zi_user.c **** }
 146              		.loc 1 27 1
 147 0014 00BF     		nop
 148 0016 0C37     		adds	r7, r7, #12
 149              	.LCFI7:
ARM GAS  C:\Users\DCS_LAB\AppData\Local\Temp\ccWgDId7.s 			page 4


 150              		.cfi_def_cfa_offset 4
 151 0018 BD46     		mov	sp, r7
 152              	.LCFI8:
 153              		.cfi_def_cfa_register 13
 154              		@ sp needed
 155 001a 80BC     		pop	{r7}
 156              	.LCFI9:
 157              		.cfi_restore 7
 158              		.cfi_def_cfa_offset 0
 159 001c 7047     		bx	lr
 160              	.L9:
 161 001e 00BF     		.align	2
 162              	.L8:
 163 0020 00040240 		.word	1073873920
 164              		.cfi_endproc
 165              	.LFE2:
 167              		.section	.text.led_on,"ax",%progbits
 168              		.align	1
 169              		.global	led_on
 170              		.syntax unified
 171              		.thumb
 172              		.thumb_func
 174              	led_on:
 175              	.LFB3:
  28:./Src/stm322f767zi_user.c **** 
  29:./Src/stm322f767zi_user.c **** void led_on(led_t led)
  30:./Src/stm322f767zi_user.c **** {
 176              		.loc 1 30 1
 177              		.cfi_startproc
 178              		@ args = 0, pretend = 0, frame = 8
 179              		@ frame_needed = 1, uses_anonymous_args = 0
 180              		@ link register save eliminated.
 181 0000 80B4     		push	{r7}
 182              	.LCFI10:
 183              		.cfi_def_cfa_offset 4
 184              		.cfi_offset 7, -4
 185 0002 83B0     		sub	sp, sp, #12
 186              	.LCFI11:
 187              		.cfi_def_cfa_offset 16
 188 0004 00AF     		add	r7, sp, #0
 189              	.LCFI12:
 190              		.cfi_def_cfa_register 7
 191 0006 7860     		str	r0, [r7, #4]
  31:./Src/stm322f767zi_user.c ****         GPIOB->BSRR |= led;
 192              		.loc 1 31 21
 193 0008 054B     		ldr	r3, .L11
 194 000a 9A69     		ldr	r2, [r3, #24]
 195 000c 0449     		ldr	r1, .L11
 196 000e 7B68     		ldr	r3, [r7, #4]
 197 0010 1343     		orrs	r3, r3, r2
 198 0012 8B61     		str	r3, [r1, #24]
  32:./Src/stm322f767zi_user.c **** }
 199              		.loc 1 32 1
 200 0014 00BF     		nop
 201 0016 0C37     		adds	r7, r7, #12
 202              	.LCFI13:
 203              		.cfi_def_cfa_offset 4
ARM GAS  C:\Users\DCS_LAB\AppData\Local\Temp\ccWgDId7.s 			page 5


 204 0018 BD46     		mov	sp, r7
 205              	.LCFI14:
 206              		.cfi_def_cfa_register 13
 207              		@ sp needed
 208 001a 80BC     		pop	{r7}
 209              	.LCFI15:
 210              		.cfi_restore 7
 211              		.cfi_def_cfa_offset 0
 212 001c 7047     		bx	lr
 213              	.L12:
 214 001e 00BF     		.align	2
 215              	.L11:
 216 0020 00040240 		.word	1073873920
 217              		.cfi_endproc
 218              	.LFE3:
 220              		.section	.text.led_off,"ax",%progbits
 221              		.align	1
 222              		.global	led_off
 223              		.syntax unified
 224              		.thumb
 225              		.thumb_func
 227              	led_off:
 228              	.LFB4:
  33:./Src/stm322f767zi_user.c **** 
  34:./Src/stm322f767zi_user.c **** void led_off(led_t led)
  35:./Src/stm322f767zi_user.c **** {
 229              		.loc 1 35 1
 230              		.cfi_startproc
 231              		@ args = 0, pretend = 0, frame = 8
 232              		@ frame_needed = 1, uses_anonymous_args = 0
 233              		@ link register save eliminated.
 234 0000 80B4     		push	{r7}
 235              	.LCFI16:
 236              		.cfi_def_cfa_offset 4
 237              		.cfi_offset 7, -4
 238 0002 83B0     		sub	sp, sp, #12
 239              	.LCFI17:
 240              		.cfi_def_cfa_offset 16
 241 0004 00AF     		add	r7, sp, #0
 242              	.LCFI18:
 243              		.cfi_def_cfa_register 7
 244 0006 7860     		str	r0, [r7, #4]
  36:./Src/stm322f767zi_user.c ****         GPIOB->BSRR |= led << 16;
 245              		.loc 1 36 21
 246 0008 054B     		ldr	r3, .L14
 247 000a 9A69     		ldr	r2, [r3, #24]
 248              		.loc 1 36 28
 249 000c 7B68     		ldr	r3, [r7, #4]
 250 000e 1B04     		lsls	r3, r3, #16
 251              		.loc 1 36 21
 252 0010 0349     		ldr	r1, .L14
 253 0012 1343     		orrs	r3, r3, r2
 254 0014 8B61     		str	r3, [r1, #24]
  37:./Src/stm322f767zi_user.c **** }...
 255              		.loc 1 37 1
 256 0016 00BF     		nop
 257 0018 0C37     		adds	r7, r7, #12
ARM GAS  C:\Users\DCS_LAB\AppData\Local\Temp\ccWgDId7.s 			page 6


 258              	.LCFI19:
 259              		.cfi_def_cfa_offset 4
 260 001a BD46     		mov	sp, r7
 261              	.LCFI20:
 262              		.cfi_def_cfa_register 13
 263              		@ sp needed
 264 001c 80BC     		pop	{r7}
 265              	.LCFI21:
 266              		.cfi_restore 7
 267              		.cfi_def_cfa_offset 0
 268 001e 7047     		bx	lr
 269              	.L15:
 270              		.align	2
 271              	.L14:
 272 0020 00040240 		.word	1073873920
 273              		.cfi_endproc
 274              	.LFE4:
 276              		.text
 277              	.Letext0:
 278              		.file 2 "e:\\gcc-arm-none-eabi-10.3-2021.10\\arm-none-eabi\\include\\machine\\_default_types.h"
 279              		.file 3 "e:\\gcc-arm-none-eabi-10.3-2021.10\\arm-none-eabi\\include\\sys\\_stdint.h"
 280              		.file 4 "./Inc/stm32f767zi_hal.h"
 281              		.file 5 "./Inc/stm32f767zi_user.h"
ARM GAS  C:\Users\DCS_LAB\AppData\Local\Temp\ccWgDId7.s 			page 7

