ARM GAS  C:\Users\DCS_LAB\AppData\Local\Temp\ccMLxcMN.s 			page 1


   1              		.cpu cortex-m7
   2              		.arch armv7e-m
   3              		.fpu fpv5-d16
   4              		.eabi_attribute 28, 1
   5              		.eabi_attribute 20, 1
   6              		.eabi_attribute 21, 1
   7              		.eabi_attribute 23, 3
   8              		.eabi_attribute 24, 1
   9              		.eabi_attribute 25, 1
  10              		.eabi_attribute 26, 1
  11              		.eabi_attribute 30, 6
  12              		.eabi_attribute 34, 1
  13              		.eabi_attribute 18, 4
  14              		.file	"test_led_button.c"
  15              		.text
  16              	.Ltext0:
  17              		.cfi_sections	.debug_frame
  18              		.section	.text.GPIO_mode,"ax",%progbits
  19              		.align	1
  20              		.global	GPIO_mode
  21              		.syntax unified
  22              		.thumb
  23              		.thumb_func
  25              	GPIO_mode:
  26              	.LFB0:
  27              		.file 1 "./Src/test_led_button.c"
   1:./Src/test_led_button.c **** /**
   2:./Src/test_led_button.c ****  * @file test_led_button.c
   3:./Src/test_led_button.c ****  * @author zheyi613 (zheyi880613@gmail.com)
   4:./Src/test_led_button.c ****  * @brief test code of led and button
   5:./Src/test_led_button.c ****  * @date 2022-08-09
   6:./Src/test_led_button.c ****  */
   7:./Src/test_led_button.c **** 
   8:./Src/test_led_button.c **** #include "stm32f767zi_hal.h"
   9:./Src/test_led_button.c **** #include "stm32f767zi_user.h"
  10:./Src/test_led_button.c **** 
  11:./Src/test_led_button.c **** void GPIO_mode(GPIO_reg_t *pGPIOx, uint32_t Pin, uint32_t Mode)
  12:./Src/test_led_button.c **** {
  28              		.loc 1 12 1
  29              		.cfi_startproc
  30              		@ args = 0, pretend = 0, frame = 16
  31              		@ frame_needed = 1, uses_anonymous_args = 0
  32              		@ link register save eliminated.
  33 0000 80B4     		push	{r7}
  34              	.LCFI0:
  35              		.cfi_def_cfa_offset 4
  36              		.cfi_offset 7, -4
  37 0002 85B0     		sub	sp, sp, #20
  38              	.LCFI1:
  39              		.cfi_def_cfa_offset 24
  40 0004 00AF     		add	r7, sp, #0
  41              	.LCFI2:
  42              		.cfi_def_cfa_register 7
  43 0006 F860     		str	r0, [r7, #12]
  44 0008 B960     		str	r1, [r7, #8]
  45 000a 7A60     		str	r2, [r7, #4]
  13:./Src/test_led_button.c ****         pGPIOx->MODER = (pGPIOx->MODER & ~(0x03 << (Pin * 2))) | (Mode << (Pin * 2));
ARM GAS  C:\Users\DCS_LAB\AppData\Local\Temp\ccMLxcMN.s 			page 2


  46              		.loc 1 13 32
  47 000c FB68     		ldr	r3, [r7, #12]
  48 000e 1B68     		ldr	r3, [r3]
  49              		.loc 1 13 57
  50 0010 BA68     		ldr	r2, [r7, #8]
  51 0012 5200     		lsls	r2, r2, #1
  52              		.loc 1 13 49
  53 0014 0321     		movs	r1, #3
  54 0016 01FA02F2 		lsl	r2, r1, r2
  55              		.loc 1 13 42
  56 001a D243     		mvns	r2, r2
  57              		.loc 1 13 40
  58 001c 1A40     		ands	r2, r2, r3
  59              		.loc 1 13 80
  60 001e BB68     		ldr	r3, [r7, #8]
  61 0020 5B00     		lsls	r3, r3, #1
  62              		.loc 1 13 72
  63 0022 7968     		ldr	r1, [r7, #4]
  64 0024 01FA03F3 		lsl	r3, r1, r3
  65              		.loc 1 13 64
  66 0028 1A43     		orrs	r2, r2, r3
  67              		.loc 1 13 23
  68 002a FB68     		ldr	r3, [r7, #12]
  69 002c 1A60     		str	r2, [r3]
  14:./Src/test_led_button.c **** }
  70              		.loc 1 14 1
  71 002e 00BF     		nop
  72 0030 1437     		adds	r7, r7, #20
  73              	.LCFI3:
  74              		.cfi_def_cfa_offset 4
  75 0032 BD46     		mov	sp, r7
  76              	.LCFI4:
  77              		.cfi_def_cfa_register 13
  78              		@ sp needed
  79 0034 5DF8047B 		ldr	r7, [sp], #4
  80              	.LCFI5:
  81              		.cfi_restore 7
  82              		.cfi_def_cfa_offset 0
  83 0038 7047     		bx	lr
  84              		.cfi_endproc
  85              	.LFE0:
  87              		.section	.text.main,"ax",%progbits
  88              		.align	1
  89              		.global	main
  90              		.syntax unified
  91              		.thumb
  92              		.thumb_func
  94              	main:
  95              	.LFB1:
  15:./Src/test_led_button.c **** 
  16:./Src/test_led_button.c **** int main(void) {
  96              		.loc 1 16 16
  97              		.cfi_startproc
  98              		@ args = 0, pretend = 0, frame = 0
  99              		@ frame_needed = 1, uses_anonymous_args = 0
 100 0000 80B5     		push	{r7, lr}
 101              	.LCFI6:
ARM GAS  C:\Users\DCS_LAB\AppData\Local\Temp\ccMLxcMN.s 			page 3


 102              		.cfi_def_cfa_offset 8
 103              		.cfi_offset 7, -8
 104              		.cfi_offset 14, -4
 105 0002 00AF     		add	r7, sp, #0
 106              	.LCFI7:
 107              		.cfi_def_cfa_register 7
  17:./Src/test_led_button.c ****         RCC->AHB1ENR |= GPIOB_CLK_EN | GPIOC_CLK_EN;
 108              		.loc 1 17 22
 109 0004 174B     		ldr	r3, .L6
 110 0006 1B6B     		ldr	r3, [r3, #48]
 111 0008 164A     		ldr	r2, .L6
 112 000a 43F00603 		orr	r3, r3, #6
 113 000e 1363     		str	r3, [r2, #48]
  18:./Src/test_led_button.c **** 
  19:./Src/test_led_button.c ****         GPIO_mode(GPIOB, USER_LED1_PIN, USER_LED_MODE);
 114              		.loc 1 19 9
 115 0010 0122     		movs	r2, #1
 116 0012 0021     		movs	r1, #0
 117 0014 1448     		ldr	r0, .L6+4
 118 0016 FFF7FEFF 		bl	GPIO_mode
  20:./Src/test_led_button.c ****         GPIO_mode(GPIOB, USER_LED2_PIN, USER_LED_MODE);
 119              		.loc 1 20 9
 120 001a 0122     		movs	r2, #1
 121 001c 0721     		movs	r1, #7
 122 001e 1248     		ldr	r0, .L6+4
 123 0020 FFF7FEFF 		bl	GPIO_mode
  21:./Src/test_led_button.c ****         GPIO_mode(GPIOB, USER_LED3_PIN, USER_LED_MODE);
 124              		.loc 1 21 9
 125 0024 0122     		movs	r2, #1
 126 0026 0E21     		movs	r1, #14
 127 0028 0F48     		ldr	r0, .L6+4
 128 002a FFF7FEFF 		bl	GPIO_mode
  22:./Src/test_led_button.c ****         GPIO_mode(GPIOC, USER_BUTTON, USER_BUTTON_MODE);
 129              		.loc 1 22 9
 130 002e 0022     		movs	r2, #0
 131 0030 4FF40051 		mov	r1, #8192
 132 0034 0D48     		ldr	r0, .L6+8
 133 0036 FFF7FEFF 		bl	GPIO_mode
 134              	.L5:
  23:./Src/test_led_button.c **** 
  24:./Src/test_led_button.c ****         while (1) {
  25:./Src/test_led_button.c ****                 /* toggle LED */
  26:./Src/test_led_button.c ****                 // GPIOB->ODR ^= USER_LED1 | USER_LED2;
  27:./Src/test_led_button.c ****                 // for (int i = 0; i < 500000; i++);
  28:./Src/test_led_button.c ****                 /* if the user button is pressed, LEDs turn on. */
  29:./Src/test_led_button.c ****                 if (GPIOC->IDR & USER_BUTTON) {
 135              		.loc 1 29 26
 136 003a 0C4B     		ldr	r3, .L6+8
 137 003c 1B69     		ldr	r3, [r3, #16]
 138              		.loc 1 29 32
 139 003e 03F40053 		and	r3, r3, #8192
 140              		.loc 1 29 20
 141 0042 002B     		cmp	r3, #0
 142 0044 07D0     		beq	.L3
  30:./Src/test_led_button.c ****                         GPIOB->BSRR |= USER_LED1 | USER_LED2 | USER_LED3;
 143              		.loc 1 30 37
 144 0046 084B     		ldr	r3, .L6+4
ARM GAS  C:\Users\DCS_LAB\AppData\Local\Temp\ccMLxcMN.s 			page 4


 145 0048 9A69     		ldr	r2, [r3, #24]
 146 004a 0749     		ldr	r1, .L6+4
 147 004c 44F28103 		movw	r3, #16513
 148 0050 1343     		orrs	r3, r3, r2
 149 0052 8B61     		str	r3, [r1, #24]
 150 0054 F1E7     		b	.L5
 151              	.L3:
  31:./Src/test_led_button.c ****                 }
  32:./Src/test_led_button.c ****                 else {
  33:./Src/test_led_button.c ****                         GPIOB->BSRR |= (USER_LED1 | USER_LED2 | USER_LED3) << 16;
 152              		.loc 1 33 37
 153 0056 044B     		ldr	r3, .L6+4
 154 0058 9A69     		ldr	r2, [r3, #24]
 155 005a 0349     		ldr	r1, .L6+4
 156 005c 044B     		ldr	r3, .L6+12
 157 005e 1343     		orrs	r3, r3, r2
 158 0060 8B61     		str	r3, [r1, #24]
  29:./Src/test_led_button.c ****                         GPIOB->BSRR |= USER_LED1 | USER_LED2 | USER_LED3;
 159              		.loc 1 29 20
 160 0062 EAE7     		b	.L5
 161              	.L7:
 162              		.align	2
 163              	.L6:
 164 0064 00380240 		.word	1073887232
 165 0068 00040240 		.word	1073873920
 166 006c 00080240 		.word	1073874944
 167 0070 00008140 		.word	1082195968
 168              		.cfi_endproc
 169              	.LFE1:
 171              		.text
 172              	.Letext0:
 173              		.file 2 "e:\\gcc-arm-none-eabi-10.3-2021.10\\arm-none-eabi\\include\\machine\\_default_types.h"
 174              		.file 3 "e:\\gcc-arm-none-eabi-10.3-2021.10\\arm-none-eabi\\include\\sys\\_stdint.h"
 175              		.file 4 "./Inc/stm32f767zi_hal.h"
ARM GAS  C:\Users\DCS_LAB\AppData\Local\Temp\ccMLxcMN.s 			page 5

